; Function Attrs: mustprogress nofree norecurse nosync nounwind willreturn memory(argmem: write) uwtable
define dso_local void @_ZN3dap4json17JsonCppSerializerC2EPN4Json5ValueE(ptr nocapture noundef nonnull writeonly align 8 dereferenceable(18) %0, ptr noundef %1) unnamed_addr #3 align 2 {
  store ptr getelementptr inbounds ({ [13 x ptr] }, ptr @_ZTVN3dap4json17JsonCppSerializerE, i64 0, i32 0, i64 2), ptr %0, align 8
  %3 = getelementptr inbounds i8, ptr %0, i64 8
  store ptr %1, ptr %3, align 8
  %4 = getelementptr inbounds i8, ptr %0, i64 16
  store i8 0, ptr %4, align 8
  %5 = getelementptr inbounds i8, ptr %0, i64 17
  store i8 0, ptr %5, align 1
  ret void
}